target datalayout = "e-m:e-p270:32:32-p271:32:32-p272:64:64-i64:64-i128:128-f80:128-n8:16:32:64-S128"
target triple = "x86_64-pc-linux-gnu"

@environ = external global ptr, align 8
@.str.100 = private unnamed_addr constant [20 x i8] c"%s: environ is NULL\00", align 1
@__func__.init_spank_env = private unnamed_addr constant [15 x i8] c"init_spank_env\00", align 1
@.str.101 = private unnamed_addr constant [13 x i8] c"SLURM_SPANK_\00", align 1
@.str.102 = private unnamed_addr constant [29 x i8] c"%s: skipping environ[%d]: %s\00", align 1
@.str.103 = private unnamed_addr constant [38 x i8] c"Malformed SPANK environment entry: %s\00", align 1
@.str.104 = private unnamed_addr constant [33 x i8] c"%s: adding SPANK environ[%d]: %s\00", align 1

; Function Attrs: nounwind uwtable
define dso_local void @init_spank_env() #0 {
  %1 = alloca i32, align 4
  %2 = alloca i32, align 4
  %3 = alloca ptr, align 8
  %4 = alloca ptr, align 8
  %5 = alloca ptr, align 8
  %6 = load ptr, ptr @environ, align 8
  %7 = icmp eq ptr %6, null
  br i1 %7, label %8, label %17

8:                                                ; preds = %0
  br label %9

9:                                                ; preds = %8
  br label %10

10:                                               ; preds = %9
  %11 = call i32 @get_log_level()
  %12 = icmp sge i32 %11, 7
  br i1 %12, label %13, label %14

13:                                               ; preds = %10
  call void (i32, ptr, ...) @log_var(i32 noundef 7, ptr noundef @.str.100, ptr noundef @__func__.init_spank_env)
  br label %14

14:                                               ; preds = %13, %10
  br label %15

15:                                               ; preds = %14
  br label %16

16:                                               ; preds = %15
  br label %99

17:                                               ; preds = %0
  call void @llvm.lifetime.start.p0(i64 4, ptr %1) #9
  store i32 0, ptr %1, align 4
  br label %18

18:                                               ; preds = %96, %17
  %19 = load ptr, ptr @environ, align 8
  %20 = load i32, ptr %1, align 4
  %21 = sext i32 %20 to i64
  %22 = getelementptr inbounds ptr, ptr %19, i64 %21
  %23 = load ptr, ptr %22, align 8
  %24 = icmp ne ptr %23, null
  br i1 %24, label %26, label %25

25:                                               ; preds = %18
  store i32 6, ptr %2, align 4
  call void @llvm.lifetime.end.p0(i64 4, ptr %1) #9
  br label %99

26:                                               ; preds = %18
  call void @llvm.lifetime.start.p0(i64 8, ptr %3) #9
  call void @llvm.lifetime.start.p0(i64 8, ptr %4) #9
  call void @llvm.lifetime.start.p0(i64 8, ptr %5) #9
  %27 = load ptr, ptr @environ, align 8
  %28 = load i32, ptr %1, align 4
  %29 = sext i32 %28 to i64
  %30 = getelementptr inbounds ptr, ptr %27, i64 %29
  %31 = load ptr, ptr %30, align 8
  %32 = call i32 @xstrncmp(ptr noundef %31, ptr noundef @.str.101, i64 noundef 12)
  %33 = icmp ne i32 %32, 0
  br i1 %33, label %34, label %51

34:                                               ; preds = %26
  br label %35

35:                                               ; preds = %34
  br label %36

36:                                               ; preds = %35
  %37 = call i32 @get_log_level()
  %38 = icmp sge i32 %37, 7
  br i1 %38, label %39, label %46

39:                                               ; preds = %36
  %40 = load i32, ptr %1, align 4
  %41 = load ptr, ptr @environ, align 8
  %42 = load i32, ptr %1, align 4
  %43 = sext i32 %42 to i64
  %44 = getelementptr inbounds ptr, ptr %41, i64 %43
  %45 = load ptr, ptr %44, align 8
  call void (i32, ptr, ...) @log_var(i32 noundef 7, ptr noundef @.str.102, ptr noundef @__func__.init_spank_env, i32 noundef %40, ptr noundef %45)
  br label %46

46:                                               ; preds = %39, %36
  br label %47

47:                                               ; preds = %46
  br label %48

48:                                               ; preds = %47
  br label %49

49:                                               ; preds = %48
  br label %50

50:                                               ; preds = %49
  store i32 8, ptr %2, align 4
  br label %93

51:                                               ; preds = %26
  %52 = load ptr, ptr @environ, align 8
  %53 = load i32, ptr %1, align 4
  %54 = sext i32 %53 to i64
  %55 = getelementptr inbounds ptr, ptr %52, i64 %54
  %56 = load ptr, ptr %55, align 8
  %57 = getelementptr inbounds i8, ptr %56, i64 12
  %58 = call ptr @xstrdup(ptr noundef %57)
  store ptr %58, ptr %3, align 8
  %59 = load ptr, ptr %3, align 8
  %60 = call ptr @strchr(ptr noundef %59, i32 noundef 61) #11
  store ptr %60, ptr %4, align 8
  %61 = load ptr, ptr %4, align 8
  %62 = icmp eq ptr %61, null
  br i1 %62, label %63, label %69

63:                                               ; preds = %51
  %64 = load ptr, ptr @environ, align 8
  %65 = load i32, ptr %1, align 4
  %66 = sext i32 %65 to i64
  %67 = getelementptr inbounds ptr, ptr %64, i64 %66
  %68 = load ptr, ptr %67, align 8
  call void (ptr, ...) @fatal(ptr noundef @.str.103, ptr noundef %68) #12
  unreachable

69:                                               ; preds = %51
  %70 = load ptr, ptr %4, align 8
  %71 = getelementptr inbounds i8, ptr %70, i64 0
  store i8 0, ptr %71, align 1
  %72 = load ptr, ptr %4, align 8
  %73 = getelementptr inbounds i8, ptr %72, i64 1
  store ptr %73, ptr %5, align 8
  %74 = load ptr, ptr %3, align 8
  %75 = load ptr, ptr %5, align 8
  %76 = call i32 @spank_set_job_env(ptr noundef %74, ptr noundef %75, i32 noundef 1)
  call void @slurm_xfree(ptr noundef %3)
  br label %77

77:                                               ; preds = %69
  br label %78

78:                                               ; preds = %77
  %79 = call i32 @get_log_level()
  %80 = icmp sge i32 %79, 7
  br i1 %80, label %81, label %88

81:                                               ; preds = %78
  %82 = load i32, ptr %1, align 4
  %83 = load ptr, ptr @environ, align 8
  %84 = load i32, ptr %1, align 4
  %85 = sext i32 %84 to i64
  %86 = getelementptr inbounds ptr, ptr %83, i64 %85
  %87 = load ptr, ptr %86, align 8
  call void (i32, ptr, ...) @log_var(i32 noundef 7, ptr noundef @.str.104, ptr noundef @__func__.init_spank_env, i32 noundef %82, ptr noundef %87)
  br label %88

88:                                               ; preds = %81, %78
  br label %89

89:                                               ; preds = %88
  br label %90

90:                                               ; preds = %89
  br label %91

91:                                               ; preds = %90
  br label %92

92:                                               ; preds = %91
  store i32 0, ptr %2, align 4
  br label %93

93:                                               ; preds = %92, %50
  call void @llvm.lifetime.end.p0(i64 8, ptr %5) #9
  call void @llvm.lifetime.end.p0(i64 8, ptr %4) #9
  call void @llvm.lifetime.end.p0(i64 8, ptr %3) #9
  %94 = load i32, ptr %2, align 4
  switch i32 %94, label %100 [
    i32 0, label %95
    i32 8, label %96
  ]

95:                                               ; preds = %93
  br label %96

96:                                               ; preds = %95, %93
  %97 = load i32, ptr %1, align 4
  %98 = add nsw i32 %97, 1
  store i32 %98, ptr %1, align 4
  br label %18, !llvm.loop !25

99:                                               ; preds = %16, %25
  ret void

100:                                              ; preds = %93
  unreachable
}