; Function Attrs: nounwind uwtable
define dso_local void @init_spank_env() local_unnamed_addr #0 {
  %1 = alloca ptr, align 8
  %2 = load ptr, ptr @environ, align 8
  %3 = icmp eq ptr %2, null
  br i1 %3, label %5, label %.preheader

.preheader:                                       ; preds = %0
  %4 = load ptr, ptr %2, align 8
  %.not15 = icmp eq ptr %4, null
  br i1 %.not15, label %.loopexit, label %.lr.ph

5:                                                ; preds = %0
  %6 = tail call i32 @get_log_level() #17
  %7 = icmp sgt i32 %6, 6
  br i1 %7, label %8, label %.loopexit

8:                                                ; preds = %5
  tail call void (i32, ptr, ...) @log_var(i32 noundef 7, ptr noundef nonnull @.str.100, ptr noundef nonnull @__func__.init_spank_env) #17
  br label %.loopexit

.lr.ph:                                           ; preds = %.preheader, %36
  %9 = phi ptr [ %39, %36 ], [ %4, %.preheader ]
  %indvars.iv = phi i64 [ %indvars.iv.next, %36 ], [ 0, %.preheader ]
  call void @llvm.lifetime.start.p0(i64 8, ptr nonnull %1) #17
  %10 = call i32 @xstrncmp(ptr noundef nonnull %9, ptr noundef nonnull @.str.101, i64 noundef 12) #17
  %.not13 = icmp eq i32 %10, 0
  br i1 %.not13, label %14, label %11

11:                                               ; preds = %.lr.ph
  %12 = call i32 @get_log_level() #17
  %13 = icmp sgt i32 %12, 6
  br i1 %13, label %.sink.split, label %36

14:                                               ; preds = %.lr.ph
  %15 = load ptr, ptr @environ, align 8
  %16 = getelementptr inbounds nuw ptr, ptr %15, i64 %indvars.iv
  %17 = load ptr, ptr %16, align 8
  %18 = getelementptr inbounds nuw i8, ptr %17, i64 12
  %19 = call ptr @xstrdup(ptr noundef nonnull %18) #17
  store ptr %19, ptr %1, align 8
  %20 = call ptr @strchr(ptr noundef nonnull dereferenceable(1) %19, i32 noundef 61) #19
  %21 = icmp eq ptr %20, null
  br i1 %21, label %22, label %26

22:                                               ; preds = %14
  %23 = load ptr, ptr @environ, align 8
  %24 = getelementptr inbounds nuw ptr, ptr %23, i64 %indvars.iv
  %25 = load ptr, ptr %24, align 8
  call void (ptr, ...) @fatal(ptr noundef nonnull @.str.103, ptr noundef %25) #18
  unreachable

26:                                               ; preds = %14
  store i8 0, ptr %20, align 1
  %27 = getelementptr inbounds nuw i8, ptr %20, i64 1
  %28 = load ptr, ptr %1, align 8
  %29 = call i32 @spank_set_job_env(ptr noundef %28, ptr noundef nonnull %27, i32 noundef 1)
  call void @slurm_xfree(ptr noundef nonnull %1) #17
  %30 = call i32 @get_log_level() #17
  %31 = icmp sgt i32 %30, 6
  br i1 %31, label %.sink.split, label %36

.sink.split:                                      ; preds = %26, %11
  %.str.104.sink = phi ptr [ @.str.102, %11 ], [ @.str.104, %26 ]
  %32 = load ptr, ptr @environ, align 8
  %33 = getelementptr inbounds nuw ptr, ptr %32, i64 %indvars.iv
  %34 = load ptr, ptr %33, align 8
  %35 = trunc nuw nsw i64 %indvars.iv to i32
  call void (i32, ptr, ...) @log_var(i32 noundef 7, ptr noundef nonnull %.str.104.sink, ptr noundef nonnull @__func__.init_spank_env, i32 noundef %35, ptr noundef %34) #17
  br label %36

36:                                               ; preds = %.sink.split, %26, %11
  call void @llvm.lifetime.end.p0(i64 8, ptr nonnull %1) #17
  %indvars.iv.next = add nuw nsw i64 %indvars.iv, 1
  %37 = load ptr, ptr @environ, align 8
  %38 = getelementptr inbounds nuw ptr, ptr %37, i64 %indvars.iv.next
  %39 = load ptr, ptr %38, align 8
  %.not = icmp eq ptr %39, null
  br i1 %.not, label %.loopexit, label %.lr.ph, !llvm.loop !24

.loopexit:                                        ; preds = %36, %.preheader, %5, %8
  ret void
}